target datalayout = "e-m:e-p270:32:32-p271:32:32-p272:64:64-i64:64-i128:128-f80:128-n8:16:32:64-S128"
target triple = "x86_64-pc-linux-gnu"

%"class.duckdb_re2::Regexp" = type { i8, i8, i16, i16, i16, %union.anon, ptr, %union.anon.0 }
%union.anon = type { ptr }
%union.anon.0 = type { %struct.anon.1 }
%struct.anon.1 = type { i32, ptr }
%"struct.std::_Rb_tree_header" = type { %"struct.std::_Rb_tree_node_base", i64 }
%"struct.std::_Rb_tree_node_base" = type { i32, ptr, ptr, ptr }
%"class.duckdb_re2::MutexLock" = type { ptr }
%"struct.duckdb_re2::RefStorage" = type { %"class.duckdb_re2::Mutex", %"class.std::map" }
%"class.duckdb_re2::Mutex" = type { %union.pthread_rwlock_t }
%union.pthread_rwlock_t = type { %struct.__pthread_rwlock_arch_t }
%struct.__pthread_rwlock_arch_t = type { i32, i32, i32, i32, i32, i32, i32, i32, i8, [7 x i8], i64, i32 }
%"class.std::map" = type { %"class.std::_Rb_tree.8" }
%"class.std::_Rb_tree.8" = type { %"struct.std::_Rb_tree<duckdb_re2::Regexp *, std::pair<duckdb_re2::Regexp *const, int>, std::_Select1st<std::pair<duckdb_re2::Regexp *const, int>>, std::less<duckdb_re2::Regexp *>>::_Rb_tree_impl" }
%"struct.std::_Rb_tree<duckdb_re2::Regexp *, std::pair<duckdb_re2::Regexp *const, int>, std::_Select1st<std::pair<duckdb_re2::Regexp *const, int>>, std::less<duckdb_re2::Regexp *>>::_Rb_tree_impl" = type { [8 x i8], %"struct.std::_Rb_tree_header" }

@_ZN10duckdb_re2L11ref_storageE = internal global [104 x i8] zeroinitializer, align 8
@.str.4 = private unnamed_addr constant [20 x i8] c"RE2 pthread failure\00", align 1
@_ZTISt13runtime_error = external constant ptr

; Function Attrs: inlinehint mustprogress uwtable
define linkonce_odr hidden void @_ZN10duckdb_re25Mutex4LockEv(ptr noundef nonnull align 8 dereferenceable(56) %0) #2 comdat align 2 personality ptr @__gxx_personality_v0 {
  %2 = alloca ptr, align 8
  %3 = alloca ptr, align 8
  %4 = alloca i32, align 4
  store ptr %0, ptr %2, align 8, !tbaa !54
  %5 = load ptr, ptr %2, align 8
  br label %6

6:                                                ; preds = %1
  %7 = getelementptr inbounds nuw %"class.duckdb_re2::Mutex", ptr %5, i32 0, i32 0
  %8 = call i32 @pthread_rwlock_wrlock(ptr noundef %7) #18
  %9 = icmp ne i32 %8, 0
  br i1 %9, label %10, label %17

10:                                               ; preds = %6
  %11 = call ptr @__cxa_allocate_exception(i64 16) #18
  invoke void @_ZNSt13runtime_errorC1EPKc(ptr noundef nonnull align 8 dereferenceable(16) %11, ptr noundef @.str.4)
          to label %12 unwind label %13

12:                                               ; preds = %10
  call void @__cxa_throw(ptr %11, ptr @_ZTISt13runtime_error, ptr @_ZNSt13runtime_errorD1Ev) #21
  unreachable

13:                                               ; preds = %10
  %14 = landingpad { ptr, i32 }
          cleanup
  %15 = extractvalue { ptr, i32 } %14, 0
  store ptr %15, ptr %3, align 8
  %16 = extractvalue { ptr, i32 } %14, 1
  store i32 %16, ptr %4, align 4
  call void @__cxa_free_exception(ptr %11) #18
  br label %19

17:                                               ; preds = %6
  br label %18

18:                                               ; preds = %17
  ret void

19:                                               ; preds = %13
  %20 = load ptr, ptr %3, align 8
  %21 = load i32, ptr %4, align 4
  %22 = insertvalue { ptr, i32 } poison, ptr %20, 0
  %23 = insertvalue { ptr, i32 } %22, i32 %21, 1
  resume { ptr, i32 } %23
}

; Function Attrs: mustprogress uwtable
define linkonce_odr hidden noundef i64 @_ZNSt3mapIPN10duckdb_re26RegexpEiSt4lessIS2_ESaISt4pairIKS2_iEEE5eraseERS6_(ptr noundef nonnull align 8 dereferenceable(48) %0, ptr noundef nonnull align 8 dereferenceable(8) %1) #4 comdat align 2 {
  %3 = alloca ptr, align 8
  %4 = alloca ptr, align 8
  store ptr %0, ptr %3, align 8, !tbaa !58
  store ptr %1, ptr %4, align 8, !tbaa !60
  %5 = load ptr, ptr %3, align 8
  %6 = getelementptr inbounds nuw %"class.std::map", ptr %5, i32 0, i32 0
  %7 = load ptr, ptr %4, align 8, !tbaa !60
  %8 = call noundef i64 @_ZNSt8_Rb_treeIPN10duckdb_re26RegexpESt4pairIKS2_iESt10_Select1stIS5_ESt4lessIS2_ESaIS5_EE5eraseERS4_(ptr noundef nonnull align 8 dereferenceable(48) %6, ptr noundef nonnull align 8 dereferenceable(8) %7)
  ret i64 %8
}

; Function Attrs: inlinehint mustprogress nounwind uwtable
define internal noundef ptr @_ZN10duckdb_re2L7ref_mapEv() #7 {
  ret ptr getelementptr inbounds nuw (%"struct.duckdb_re2::RefStorage", ptr @_ZN10duckdb_re2L11ref_storageE, i32 0, i32 1)
}

; Function Attrs: mustprogress uwtable
define linkonce_odr hidden void @_ZN10duckdb_re29MutexLockC2EPNS_5MutexE(ptr noundef nonnull align 8 dereferenceable(8) %0, ptr noundef %1) unnamed_addr #4 comdat align 2 {
  %3 = alloca ptr, align 8
  %4 = alloca ptr, align 8
  store ptr %0, ptr %3, align 8, !tbaa !52
  store ptr %1, ptr %4, align 8, !tbaa !54
  %5 = load ptr, ptr %3, align 8
  %6 = getelementptr inbounds nuw %"class.duckdb_re2::MutexLock", ptr %5, i32 0, i32 0
  %7 = load ptr, ptr %4, align 8, !tbaa !54
  store ptr %7, ptr %6, align 8, !tbaa !56
  %8 = getelementptr inbounds nuw %"class.duckdb_re2::MutexLock", ptr %5, i32 0, i32 0
  %9 = load ptr, ptr %8, align 8, !tbaa !56
  call void @_ZN10duckdb_re25Mutex4LockEv(ptr noundef nonnull align 8 dereferenceable(56) %9)
  ret void
}

; Function Attrs: inlinehint mustprogress nounwind uwtable
define internal noundef ptr @_ZN10duckdb_re2L9ref_mutexEv() #7 {
  ret ptr @_ZN10duckdb_re2L11ref_storageE
}

; Function Attrs: mustprogress uwtable
define hidden void @_ZN10duckdb_re26Regexp6DecrefEv(ptr noundef nonnull align 8 dereferenceable(40) %0) #4 align 2 personality ptr @__gxx_personality_v0 {
  %2 = alloca ptr, align 8
  %3 = alloca %"class.duckdb_re2::MutexLock", align 8
  %4 = alloca i32, align 4
  %5 = alloca ptr, align 8
  %6 = alloca i32, align 4
  %7 = alloca ptr, align 8
  %8 = alloca ptr, align 8
  %9 = alloca ptr, align 8
  store ptr %0, ptr %2, align 8, !tbaa !3
  %10 = load ptr, ptr %2, align 8
  %11 = getelementptr inbounds nuw %"class.duckdb_re2::Regexp", ptr %10, i32 0, i32 3
  %12 = load i16, ptr %11, align 4, !tbaa !17
  %13 = zext i16 %12 to i32
  %14 = icmp eq i32 %13, 65535
  br i1 %14, label %15, label %57

15:                                               ; preds = %1
  call void @llvm.lifetime.start.p0(i64 8, ptr %3) #18
  %16 = call noundef ptr @_ZN10duckdb_re2L9ref_mutexEv()
  call void @_ZN10duckdb_re29MutexLockC2EPNS_5MutexE(ptr noundef nonnull align 8 dereferenceable(8) %3, ptr noundef %16)
  call void @llvm.lifetime.start.p0(i64 4, ptr %4) #18
  %17 = invoke noundef ptr @_ZN10duckdb_re2L7ref_mapEv()
          to label %18 unwind label %33

18:                                               ; preds = %15
  call void @llvm.lifetime.start.p0(i64 8, ptr %7) #18
  store ptr %10, ptr %7, align 8, !tbaa !3
  %19 = invoke noundef nonnull align 4 dereferenceable(4) ptr @_ZNSt3mapIPN10duckdb_re26RegexpEiSt4lessIS2_ESaISt4pairIKS2_iEEEixEOS2_(ptr noundef nonnull align 8 dereferenceable(48) %17, ptr noundef nonnull align 8 dereferenceable(8) %7)
          to label %20 unwind label %37

20:                                               ; preds = %18
  %21 = load i32, ptr %19, align 4, !tbaa !29
  %22 = sub nsw i32 %21, 1
  call void @llvm.lifetime.end.p0(i64 8, ptr %7) #18
  store i32 %22, ptr %4, align 4, !tbaa !29
  %23 = load i32, ptr %4, align 4, !tbaa !29
  %24 = icmp slt i32 %23, 65535
  br i1 %24, label %25, label %45

25:                                               ; preds = %20
  %26 = load i32, ptr %4, align 4, !tbaa !29
  %27 = trunc i32 %26 to i16
  %28 = getelementptr inbounds nuw %"class.duckdb_re2::Regexp", ptr %10, i32 0, i32 3
  store i16 %27, ptr %28, align 4, !tbaa !17
  %29 = invoke noundef ptr @_ZN10duckdb_re2L7ref_mapEv()
          to label %30 unwind label %33

30:                                               ; preds = %25
  call void @llvm.lifetime.start.p0(i64 8, ptr %8) #18
  store ptr %10, ptr %8, align 8, !tbaa !3
  %31 = invoke noundef i64 @_ZNSt3mapIPN10duckdb_re26RegexpEiSt4lessIS2_ESaISt4pairIKS2_iEEE5eraseERS6_(ptr noundef nonnull align 8 dereferenceable(48) %29, ptr noundef nonnull align 8 dereferenceable(8) %8)
          to label %32 unwind label %41

32:                                               ; preds = %30
  call void @llvm.lifetime.end.p0(i64 8, ptr %8) #18
  br label %55

33:                                               ; preds = %45, %25, %15
  %34 = landingpad { ptr, i32 }
          cleanup
  %35 = extractvalue { ptr, i32 } %34, 0
  store ptr %35, ptr %5, align 8
  %36 = extractvalue { ptr, i32 } %34, 1
  store i32 %36, ptr %6, align 4
  br label %56

37:                                               ; preds = %18
  %38 = landingpad { ptr, i32 }
          cleanup
  %39 = extractvalue { ptr, i32 } %38, 0
  store ptr %39, ptr %5, align 8
  %40 = extractvalue { ptr, i32 } %38, 1
  store i32 %40, ptr %6, align 4
  call void @llvm.lifetime.end.p0(i64 8, ptr %7) #18
  br label %56

41:                                               ; preds = %30
  %42 = landingpad { ptr, i32 }
          cleanup
  %43 = extractvalue { ptr, i32 } %42, 0
  store ptr %43, ptr %5, align 8
  %44 = extractvalue { ptr, i32 } %42, 1
  store i32 %44, ptr %6, align 4
  call void @llvm.lifetime.end.p0(i64 8, ptr %8) #18
  br label %56

45:                                               ; preds = %20
  %46 = load i32, ptr %4, align 4, !tbaa !29
  %47 = invoke noundef ptr @_ZN10duckdb_re2L7ref_mapEv()
          to label %48 unwind label %33

48:                                               ; preds = %45
  call void @llvm.lifetime.start.p0(i64 8, ptr %9) #18
  store ptr %10, ptr %9, align 8, !tbaa !3
  %49 = invoke noundef nonnull align 4 dereferenceable(4) ptr @_ZNSt3mapIPN10duckdb_re26RegexpEiSt4lessIS2_ESaISt4pairIKS2_iEEEixEOS2_(ptr noundef nonnull align 8 dereferenceable(48) %47, ptr noundef nonnull align 8 dereferenceable(8) %9)
          to label %50 unwind label %51

50:                                               ; preds = %48
  store i32 %46, ptr %49, align 4, !tbaa !29
  call void @llvm.lifetime.end.p0(i64 8, ptr %9) #18
  br label %55

51:                                               ; preds = %48
  %52 = landingpad { ptr, i32 }
          cleanup
  %53 = extractvalue { ptr, i32 } %52, 0
  store ptr %53, ptr %5, align 8
  %54 = extractvalue { ptr, i32 } %52, 1
  store i32 %54, ptr %6, align 4
  call void @llvm.lifetime.end.p0(i64 8, ptr %9) #18
  br label %56

55:                                               ; preds = %50, %32
  call void @llvm.lifetime.end.p0(i64 4, ptr %4) #18
  call void @_ZN10duckdb_re29MutexLockD2Ev(ptr noundef nonnull align 8 dereferenceable(8) %3) #18
  call void @llvm.lifetime.end.p0(i64 8, ptr %3) #18
  br label %66

56:                                               ; preds = %51, %41, %37, %33
  call void @llvm.lifetime.end.p0(i64 4, ptr %4) #18
  call void @_ZN10duckdb_re29MutexLockD2Ev(ptr noundef nonnull align 8 dereferenceable(8) %3) #18
  call void @llvm.lifetime.end.p0(i64 8, ptr %3) #18
  br label %67

57:                                               ; preds = %1
  %58 = getelementptr inbounds nuw %"class.duckdb_re2::Regexp", ptr %10, i32 0, i32 3
  %59 = load i16, ptr %58, align 4, !tbaa !17
  %60 = add i16 %59, -1
  store i16 %60, ptr %58, align 4, !tbaa !17
  %61 = getelementptr inbounds nuw %"class.duckdb_re2::Regexp", ptr %10, i32 0, i32 3
  %62 = load i16, ptr %61, align 4, !tbaa !17
  %63 = zext i16 %62 to i32
  %64 = icmp eq i32 %63, 0
  br i1 %64, label %65, label %66

65:                                               ; preds = %57
  call void @_ZN10duckdb_re26Regexp7DestroyEv(ptr noundef nonnull align 8 dereferenceable(40) %10)
  br label %66

66:                                               ; preds = %55, %65, %57
  ret void

67:                                               ; preds = %56
  %68 = load ptr, ptr %5, align 8
  %69 = load i32, ptr %6, align 4
  %70 = insertvalue { ptr, i32 } poison, ptr %68, 0
  %71 = insertvalue { ptr, i32 } %70, i32 %69, 1
  resume { ptr, i32 } %71
}