; Function Attrs: mustprogress uwtable
define hidden void @_ZN10duckdb_re26Regexp6DecrefEv(ptr noundef nonnull align 8 dereferenceable(40) %0) local_unnamed_addr #7 align 2 personality ptr @__gxx_personality_v0 {
  %2 = alloca %"class.duckdb_re2::MutexLock", align 8
  %3 = alloca ptr, align 8
  %4 = alloca ptr, align 8
  %5 = alloca ptr, align 8
  %6 = getelementptr inbounds nuw i8, ptr %0, i64 4
  %7 = load i16, ptr %6, align 4, !tbaa !12
  %8 = icmp eq i16 %7, -1
  br i1 %8, label %9, label %44

9:                                                ; preds = %1
  call void @llvm.lifetime.start.p0(i64 8, ptr nonnull %2) #27
  store ptr @_ZN10duckdb_re2L11ref_storageE, ptr %2, align 8, !tbaa !38
  %10 = tail call i32 @pthread_rwlock_wrlock(ptr noundef nonnull align 8 dereferenceable(56) @_ZN10duckdb_re2L11ref_storageE) #27
  %.not.i.i = icmp eq i32 %10, 0
  br i1 %.not.i.i, label %_ZN10duckdb_re29MutexLockC2EPNS_5MutexE.exit, label %11

11:                                               ; preds = %9
  %12 = tail call ptr @__cxa_allocate_exception(i64 16) #27
  invoke void @_ZNSt13runtime_errorC1EPKc(ptr noundef nonnull align 8 dereferenceable(16) %12, ptr noundef nonnull @.str.4)
          to label %13 unwind label %14

13:                                               ; preds = %11
  tail call void @__cxa_throw(ptr nonnull %12, ptr nonnull @_ZTISt13runtime_error, ptr nonnull @_ZNSt13runtime_errorD1Ev) #30
  unreachable

common.resume:                                    ; preds = %43, %14
  %common.resume.op = phi { ptr, i32 } [ %15, %14 ], [ %.pn, %43 ]
  resume { ptr, i32 } %common.resume.op

14:                                               ; preds = %11
  %15 = landingpad { ptr, i32 }
          cleanup
  tail call void @__cxa_free_exception(ptr nonnull %12) #27
  br label %common.resume

_ZN10duckdb_re29MutexLockC2EPNS_5MutexE.exit:     ; preds = %9
  call void @llvm.lifetime.start.p0(i64 8, ptr nonnull %3) #27
  store ptr %0, ptr %3, align 8, !tbaa !41
  %16 = invoke noundef nonnull align 4 dereferenceable(4) ptr @_ZNSt3mapIPN10duckdb_re26RegexpEiSt4lessIS2_ESaISt4pairIKS2_iEEEixEOS2_(ptr noundef nonnull align 8 dereferenceable(48) getelementptr inbounds nuw (i8, ptr @_ZN10duckdb_re2L11ref_storageE, i64 56), ptr noundef nonnull align 8 dereferenceable(8) %3)
          to label %17 unwind label %24

17:                                               ; preds = %_ZN10duckdb_re29MutexLockC2EPNS_5MutexE.exit
  %18 = load i32, ptr %16, align 4, !tbaa !42
  %19 = add nsw i32 %18, -1
  call void @llvm.lifetime.end.p0(i64 8, ptr nonnull %3) #27
  %20 = icmp slt i32 %18, 65536
  br i1 %20, label %21, label %28

21:                                               ; preds = %17
  %22 = trunc i32 %19 to i16
  store i16 %22, ptr %6, align 4, !tbaa !12
  call void @llvm.lifetime.start.p0(i64 8, ptr nonnull %4) #27
  store ptr %0, ptr %4, align 8, !tbaa !41
  %23 = invoke noundef i64 @_ZNSt8_Rb_treeIPN10duckdb_re26RegexpESt4pairIKS2_iESt10_Select1stIS5_ESt4lessIS2_ESaIS5_EE5eraseERS4_(ptr noundef nonnull align 8 dereferenceable(48) getelementptr inbounds nuw (i8, ptr @_ZN10duckdb_re2L11ref_storageE, i64 56), ptr noundef nonnull align 8 dereferenceable(8) %4)
          to label %_ZNSt3mapIPN10duckdb_re26RegexpEiSt4lessIS2_ESaISt4pairIKS2_iEEE5eraseERS6_.exit unwind label %26

_ZNSt3mapIPN10duckdb_re26RegexpEiSt4lessIS2_ESaISt4pairIKS2_iEEE5eraseERS6_.exit: ; preds = %21
  call void @llvm.lifetime.end.p0(i64 8, ptr nonnull %4) #27
  br label %33

24:                                               ; preds = %_ZN10duckdb_re29MutexLockC2EPNS_5MutexE.exit
  %25 = landingpad { ptr, i32 }
          cleanup
  call void @llvm.lifetime.end.p0(i64 8, ptr nonnull %3) #27
  br label %43

26:                                               ; preds = %21
  %27 = landingpad { ptr, i32 }
          cleanup
  call void @llvm.lifetime.end.p0(i64 8, ptr nonnull %4) #27
  br label %43

28:                                               ; preds = %17
  call void @llvm.lifetime.start.p0(i64 8, ptr nonnull %5) #27
  store ptr %0, ptr %5, align 8, !tbaa !41
  %29 = invoke noundef nonnull align 4 dereferenceable(4) ptr @_ZNSt3mapIPN10duckdb_re26RegexpEiSt4lessIS2_ESaISt4pairIKS2_iEEEixEOS2_(ptr noundef nonnull align 8 dereferenceable(48) getelementptr inbounds nuw (i8, ptr @_ZN10duckdb_re2L11ref_storageE, i64 56), ptr noundef nonnull align 8 dereferenceable(8) %5)
          to label %30 unwind label %31

30:                                               ; preds = %28
  store i32 %19, ptr %29, align 4, !tbaa !42
  call void @llvm.lifetime.end.p0(i64 8, ptr nonnull %5) #27
  br label %33

31:                                               ; preds = %28
  %32 = landingpad { ptr, i32 }
          cleanup
  call void @llvm.lifetime.end.p0(i64 8, ptr nonnull %5) #27
  br label %43

33:                                               ; preds = %30, %_ZNSt3mapIPN10duckdb_re26RegexpEiSt4lessIS2_ESaISt4pairIKS2_iEEE5eraseERS6_.exit
  %34 = call i32 @pthread_rwlock_unlock(ptr noundef nonnull align 8 dereferenceable(56) @_ZN10duckdb_re2L11ref_storageE) #27
  %.not.i.i8 = icmp eq i32 %34, 0
  br i1 %.not.i.i8, label %_ZN10duckdb_re29MutexLockD2Ev.exit, label %35

35:                                               ; preds = %33
  %36 = call ptr @__cxa_allocate_exception(i64 16) #27
  invoke void @_ZNSt13runtime_errorC1EPKc(ptr noundef nonnull align 8 dereferenceable(16) %36, ptr noundef nonnull @.str.4)
          to label %37 unwind label %38

37:                                               ; preds = %35
  invoke void @__cxa_throw(ptr nonnull %36, ptr nonnull @_ZTISt13runtime_error, ptr nonnull @_ZNSt13runtime_errorD1Ev) #30
          to label %.noexc.i unwind label %40

.noexc.i:                                         ; preds = %37
  unreachable

38:                                               ; preds = %35
  %39 = landingpad { ptr, i32 }
          catch ptr null
  call void @__cxa_free_exception(ptr nonnull %36) #27
  br label %.body.i

40:                                               ; preds = %37
  %41 = landingpad { ptr, i32 }
          catch ptr null
  br label %.body.i

.body.i:                                          ; preds = %40, %38
  %eh.lpad-body.i = phi { ptr, i32 } [ %41, %40 ], [ %39, %38 ]
  %42 = extractvalue { ptr, i32 } %eh.lpad-body.i, 0
  call void @__clang_call_terminate(ptr %42) #29
  unreachable

_ZN10duckdb_re29MutexLockD2Ev.exit:               ; preds = %33
  call void @llvm.lifetime.end.p0(i64 8, ptr nonnull %2) #27
  br label %48

43:                                               ; preds = %31, %26, %24
  %.pn = phi { ptr, i32 } [ %27, %26 ], [ %32, %31 ], [ %25, %24 ]
  call void @_ZN10duckdb_re29MutexLockD2Ev(ptr noundef nonnull align 8 dereferenceable(8) %2) #27
  call void @llvm.lifetime.end.p0(i64 8, ptr nonnull %2) #27
  br label %common.resume

44:                                               ; preds = %1
  %45 = add i16 %7, -1
  store i16 %45, ptr %6, align 4, !tbaa !12
  %46 = icmp eq i16 %45, 0
  br i1 %46, label %47, label %48

47:                                               ; preds = %44
  tail call void @_ZN10duckdb_re26Regexp7DestroyEv(ptr noundef nonnull align 8 dereferenceable(40) %0)
  br label %48

48:                                               ; preds = %47, %44, %_ZN10duckdb_re29MutexLockD2Ev.exit
  ret void
}